; Function Attrs: mustprogress nofree nounwind uwtable
define noundef zeroext i1 @_ZN4base23GetPosixFilePermissionsERKNS_8FilePathEPi(ptr noundef nonnull readonly align 8 captures(none) dereferenceable(32) %0, ptr noundef writeonly captures(none) %1) local_unnamed_addr #6 {
  %3 = alloca %struct.stat64, align 8
  call void @llvm.lifetime.start.p0(i64 144, ptr nonnull %3) #24
  %4 = load ptr, ptr %0, align 8, !tbaa !3
  %5 = call noundef i32 @stat64(ptr noundef readonly %4, ptr noundef nonnull %3) #24
  %.not = icmp eq i32 %5, 0
  br i1 %.not, label %6, label %10

6:                                                ; preds = %2
  %7 = getelementptr inbounds nuw i8, ptr %3, i64 24
  %8 = load i32, ptr %7, align 8, !tbaa !13
  %9 = and i32 %8, 511
  store i32 %9, ptr %1, align 4, !tbaa !11
  br label %10

10:                                               ; preds = %2, %6
  call void @llvm.lifetime.end.p0(i64 144, ptr nonnull %3) #24
  ret i1 %.not
}